	.file	"bl_dac_audio.c"
	.option nopic
	.attribute arch, "rv32i2p0_m2p0_f2p0_c2p0"
	.attribute unaligned_access, 0
	.attribute stack_align, 16
	.text
.Ltext0:
	.cfi_sections	.debug_frame
	.section	.text.__dma_irq_handler,"ax",@progbits
	.align	1
	.type	__dma_irq_handler, @function
__dma_irq_handler:
.LFB31:
	.file 1 "D:/BL602/NewBl602_sdk/bl_iot_sdk/components/hal_drv/bl602_hal/bl_dac_audio.c"
	.loc 1 161 1
	.cfi_startproc
	.loc 1 162 5
	.loc 1 163 5
	.loc 1 165 5
	.loc 1 161 1 is_stmt 0
	addi	sp,sp,-16
	.cfi_def_cfa_offset 16
	sw	s0,8(sp)
	.cfi_offset 8, -8
	.loc 1 165 14
	lui	s0,%hi(.LANCHOR0)
	lw	a5,%lo(.LANCHOR0)(s0)
	.loc 1 161 1
	sw	ra,12(sp)
	.cfi_offset 1, -4
	.loc 1 165 8
	beq	a5,zero,.L1
	.loc 1 169 5 is_stmt 1
	.loc 1 169 12 is_stmt 0
	li	a4,1073790976
	lw	a4,4(a4)
.LVL0:
	.loc 1 170 5 is_stmt 1
	.loc 1 170 57 is_stmt 0
	andi	a4,a4,1
.LVL1:
	.loc 1 170 7
	beq	a4,zero,.L4
	.loc 1 172 9 is_stmt 1
.LVL2:
	.loc 1 174 9
	.loc 1 174 29 is_stmt 0
	lw	a6,48(a5)
	.loc 1 174 12
	beq	a6,zero,.L4
	.loc 1 175 17
	lbu	a4,0(a5)
	.loc 1 172 53
	lw	a2,40(a5)
	.loc 1 175 16
	li	a7,1
	.loc 1 175 17
	addi	a4,a4,1
	andi	a4,a4,0xff
	.loc 1 175 16
	sb	a4,0(a5)
	addi	s0,s0,%lo(.LANCHOR0)
	.loc 1 172 53
	srli	a2,a2,1
	.loc 1 175 13 is_stmt 1
	lw	a0,52(a5)
	lw	a1,36(a5)
	lw	a3,44(a5)
	.loc 1 175 16 is_stmt 0
	bleu	a4,a7,.L5
	.loc 1 176 17 is_stmt 1
	.loc 1 176 44 is_stmt 0
	sb	zero,0(a5)
	.loc 1 178 13 is_stmt 1
.L6:
	.loc 1 184 17
	.loc 1 184 23 is_stmt 0
	add	a1,a1,a2
	j	.L27
.L5:
	.loc 1 178 13 is_stmt 1
	.loc 1 178 16 is_stmt 0
	beq	a4,zero,.L6
.L27:
	.loc 1 184 23
	jalr	a6
.LVL3:
	.loc 1 189 13 is_stmt 1
	lw	a5,0(s0)
	.loc 1 189 16 is_stmt 0
	beq	a0,zero,.L8
	.loc 1 190 17 is_stmt 1
	.loc 1 190 47 is_stmt 0
	li	a4,1
	sw	a4,44(a5)
.LVL4:
.L4:
	.loc 1 196 5 is_stmt 1
.LBB4:
.LBB5:
	.loc 1 132 5
	.loc 1 133 5
	.loc 1 135 5
	.loc 1 137 5
	.loc 1 137 12 is_stmt 0
	li	a5,1073790976
	lw	a4,4(a5)
.LVL5:
	.loc 1 138 5 is_stmt 1
	.loc 1 138 57 is_stmt 0
	andi	a4,a4,1
.LVL6:
	.loc 1 138 7
	beq	a4,zero,.L9
	.loc 1 140 9 is_stmt 1
	.loc 1 140 16 is_stmt 0
	lw	a4,8(a5)
.LVL7:
	.loc 1 141 9 is_stmt 1
	.loc 1 142 9
	.loc 1 143 9
	.loc 1 143 16 is_stmt 0
	ori	a4,a4,1
.LVL8:
	.loc 1 144 9 is_stmt 1
	.loc 1 144 47 is_stmt 0
	sw	a4,8(a5)
.LVL9:
.L9:
	.loc 1 147 5 is_stmt 1
	.loc 1 147 12 is_stmt 0
	li	a5,1073790976
	lw	a4,12(a5)
.LVL10:
	.loc 1 148 5 is_stmt 1
	.loc 1 148 57 is_stmt 0
	andi	a4,a4,1
.LVL11:
	.loc 1 148 7
	beq	a4,zero,.L1
	.loc 1 150 9 is_stmt 1
	.loc 1 150 16 is_stmt 0
	lw	a4,16(a5)
.LVL12:
	.loc 1 151 9 is_stmt 1
	.loc 1 152 9
	.loc 1 153 9
	.loc 1 153 16 is_stmt 0
	ori	a4,a4,1
.LVL13:
	.loc 1 154 9 is_stmt 1
	.loc 1 154 48 is_stmt 0
	sw	a4,16(a5)
.LVL14:
.L1:
.LBE5:
.LBE4:
	.loc 1 197 1
	lw	ra,12(sp)
	.cfi_remember_state
	.cfi_restore 1
	lw	s0,8(sp)
	.cfi_restore 8
	addi	sp,sp,16
	.cfi_def_cfa_offset 0
	jr	ra
.LVL15:
.L8:
	.cfi_restore_state
	.loc 1 192 17 is_stmt 1
	.loc 1 192 47 is_stmt 0
	sw	zero,44(a5)
	j	.L4
	.cfi_endproc
.LFE31:
	.size	__dma_irq_handler, .-__dma_irq_handler
	.section	.text.bl_audio_dac_samplerate_set,"ax",@progbits
	.align	1
	.globl	bl_audio_dac_samplerate_set
	.type	bl_audio_dac_samplerate_set, @function
bl_audio_dac_samplerate_set:
.LFB32:
	.loc 1 200 1 is_stmt 1
	.cfi_startproc
.LVL16:
	.loc 1 201 5
	.loc 1 201 16 is_stmt 0
	lui	a5,%hi(.LANCHOR1+3)
	sb	a1,%lo(.LANCHOR1+3)(a5)
	.loc 1 202 5 is_stmt 1
	.loc 1 203 1 is_stmt 0
	li	a0,0
.LVL17:
	ret
	.cfi_endproc
.LFE32:
	.size	bl_audio_dac_samplerate_set, .-bl_audio_dac_samplerate_set
	.section	.text.bl_audio_dac_tx_ready_config,"ax",@progbits
	.align	1
	.globl	bl_audio_dac_tx_ready_config
	.type	bl_audio_dac_tx_ready_config, @function
bl_audio_dac_tx_ready_config:
.LFB33:
	.loc 1 208 1 is_stmt 1
	.cfi_startproc
.LVL18:
	.loc 1 209 5
	.loc 1 209 8 is_stmt 0
	beq	a0,zero,.L31
	.loc 1 212 5 is_stmt 1
	.loc 1 212 19 is_stmt 0
	sw	a1,48(a0)
	.loc 1 213 5 is_stmt 1
	.loc 1 213 22 is_stmt 0
	sw	a2,52(a0)
	.loc 1 214 5 is_stmt 1
	.loc 1 214 12 is_stmt 0
	li	a0,0
.LVL19:
	ret
.LVL20:
.L31:
	.loc 1 210 16
	li	a0,-1
.LVL21:
	.loc 1 215 1
	ret
	.cfi_endproc
.LFE33:
	.size	bl_audio_dac_tx_ready_config, .-bl_audio_dac_tx_ready_config
	.section	.text.bl_audio_dac_rx_ready_config,"ax",@progbits
	.align	1
	.globl	bl_audio_dac_rx_ready_config
	.type	bl_audio_dac_rx_ready_config, @function
bl_audio_dac_rx_ready_config:
.LFB34:
	.loc 1 220 1 is_stmt 1
	.cfi_startproc
.LVL22:
	.loc 1 221 5
	.loc 1 222 1 is_stmt 0
	li	a0,0
.LVL23:
	ret
	.cfi_endproc
.LFE34:
	.size	bl_audio_dac_rx_ready_config, .-bl_audio_dac_rx_ready_config
	.section	.text.bl_audio_dac_tx_buffer_config,"ax",@progbits
	.align	1
	.globl	bl_audio_dac_tx_buffer_config
	.type	bl_audio_dac_tx_buffer_config, @function
bl_audio_dac_tx_buffer_config:
.LFB35:
	.loc 1 225 1 is_stmt 1
	.cfi_startproc
.LVL24:
	.loc 1 226 5
	.loc 1 227 5
	.loc 1 229 5
	.loc 1 225 1 is_stmt 0
	addi	sp,sp,-32
	.cfi_def_cfa_offset 32
	sw	s0,24(sp)
	sw	ra,28(sp)
	.cfi_offset 8, -8
	.cfi_offset 1, -4
	.loc 1 229 8
	lw	a5,36(a0)
	.loc 1 225 1
	mv	s0,a0
	.loc 1 229 8
	bne	a5,zero,.L34
	.loc 1 230 32
	mv	a0,a2
.LVL25:
	sw	a1,12(sp)
	.loc 1 230 9 is_stmt 1
	.loc 1 230 32 is_stmt 0
	sw	a2,8(sp)
	call	pvPortMalloc
.LVL26:
	.loc 1 230 30
	lw	a1,12(sp)
	lw	a2,8(sp)
	sw	a0,36(s0)
.LVL27:
.L34:
	.loc 1 233 5 is_stmt 1
	.loc 1 233 21 is_stmt 0
	lw	a3,36(s0)
	.loc 1 234 16
	li	a0,-1
	.loc 1 233 8
	beq	a3,zero,.L33
	.loc 1 236 5 is_stmt 1
	.loc 1 236 14 is_stmt 0
	sw	a3,0(a1)
	.loc 1 237 5 is_stmt 1
	.loc 1 237 31 is_stmt 0
	sw	a2,40(s0)
	.loc 1 239 5 is_stmt 1
.LVL28:
	.loc 1 240 5
	.loc 1 240 12 is_stmt 0
	li	a5,0
	.loc 1 241 17
	li	a2,512
.LVL29:
.L36:
	.loc 1 240 48 discriminator 1
	lw	a4,40(s0)
	srli	a4,a4,1
	.loc 1 240 5 discriminator 1
	bgtu	a4,a5,.L37
	.loc 1 244 12
	li	a0,0
.LVL30:
.L33:
	.loc 1 245 1
	lw	ra,28(sp)
	.cfi_remember_state
	.cfi_restore 1
	lw	s0,24(sp)
	.cfi_restore 8
.LVL31:
	addi	sp,sp,32
	.cfi_def_cfa_offset 0
	jr	ra
.LVL32:
.L37:
	.cfi_restore_state
	.loc 1 241 9 is_stmt 1 discriminator 3
	.loc 1 241 17 is_stmt 0 discriminator 3
	slli	a4,a5,1
	add	a4,a3,a4
	sh	a2,0(a4)
	.loc 1 240 56 discriminator 3
	addi	a5,a5,1
.LVL33:
	j	.L36
	.cfi_endproc
.LFE35:
	.size	bl_audio_dac_tx_buffer_config, .-bl_audio_dac_tx_buffer_config
	.section	.text.bl_audio_dac_rx_buffer_config,"ax",@progbits
	.align	1
	.globl	bl_audio_dac_rx_buffer_config
	.type	bl_audio_dac_rx_buffer_config, @function
bl_audio_dac_rx_buffer_config:
.LFB36:
	.loc 1 250 1 is_stmt 1
	.cfi_startproc
.LVL34:
	.loc 1 251 5
	.loc 1 252 1 is_stmt 0
	li	a0,0
.LVL35:
	ret
	.cfi_endproc
.LFE36:
	.size	bl_audio_dac_rx_buffer_config, .-bl_audio_dac_rx_buffer_config
	.section	.text.bl_audio_dac_start,"ax",@progbits
	.align	1
	.globl	bl_audio_dac_start
	.type	bl_audio_dac_start, @function
bl_audio_dac_start:
.LFB37:
	.loc 1 255 1 is_stmt 1
	.cfi_startproc
.LVL36:
	.loc 1 256 5
	.loc 1 256 8 is_stmt 0
	beq	a0,zero,.L43
	.loc 1 255 1
	addi	sp,sp,-16
	.cfi_def_cfa_offset 16
	sw	ra,12(sp)
	sw	s0,8(sp)
	.cfi_offset 1, -4
	.cfi_offset 8, -8
	mv	s0,a0
	.loc 1 260 5 is_stmt 1
	call	DMA_Enable
.LVL37:
	.loc 1 261 5
	li	a0,0
	call	DMA_Channel_Disable
.LVL38:
	.loc 1 263 5
	li	a2,1
	li	a1,2
	li	a0,0
	call	DMA_IntMask
.LVL39:
	.loc 1 264 5
	li	a2,0
	li	a1,0
	li	a0,0
	call	DMA_IntMask
.LVL40:
	.loc 1 265 5
	lui	a1,%hi(__dma_irq_handler)
	addi	a1,a1,%lo(__dma_irq_handler)
	li	a0,31
	call	bl_irq_register
.LVL41:
	.loc 1 266 5
	li	a0,31
	call	bl_irq_enable
.LVL42:
	.loc 1 268 5
	lui	a0,%hi(.LANCHOR1)
	addi	a0,a0,%lo(.LANCHOR1)
	call	GLB_GPIP_DAC_Init
.LVL43:
	.loc 1 269 5
	li	a0,1
	call	GPIP_Set_DAC_DMA_TX_FORMAT_SEL
.LVL44:
	.loc 1 270 5
	call	GPIP_Set_DAC_DMA_TX_Enable
.LVL45:
	.loc 1 271 5
	call	GPIP_DAC_ChanA_Enable
.LVL46:
	.loc 1 272 5
	call	GPIP_DAC_ChanB_Enable
.LVL47:
	.loc 1 274 5
.LBB8:
.LBB9:
	.loc 1 114 5
	.loc 1 114 37 is_stmt 0
	lw	a0,36(s0)
	.loc 1 115 36
	li	a2,1073750016
	addi	a2,a2,72
	.loc 1 116 44
	addi	a5,s0,20
	.loc 1 117 32
	lui	a3,%hi(.LANCHOR2)
	.loc 1 115 36
	sw	a2,8(s0)
	.loc 1 117 32
	addi	a3,a3,%lo(.LANCHOR2)
	.loc 1 114 35
	sw	a0,4(s0)
	.loc 1 115 5 is_stmt 1
	.loc 1 116 5
	.loc 1 116 32 is_stmt 0
	sw	a5,12(s0)
	.loc 1 117 5 is_stmt 1
	.loc 1 117 40 is_stmt 0
	lw	a5,40(s0)
	.loc 1 117 32
	lw	a4,0(a3)
	li	a6,-4096
	slli	a1,a5,17
	and	a4,a4,a6
	srli	a1,a1,20
	or	a4,a4,a1
	.loc 1 120 99
	srli	a5,a5,1
	.loc 1 117 32
	sw	a4,0(a3)
	.loc 1 118 5 is_stmt 1
	.loc 1 120 70 is_stmt 0
	add	a5,a5,a0
	.loc 1 120 35
	sw	a5,20(s0)
	.loc 1 122 42
	addi	a5,s0,4
	.loc 1 122 31
	sw	a5,28(s0)
	.loc 1 124 31
	lw	a5,0(a3)
	.loc 1 126 5
	lui	a1,%hi(.LANCHOR3)
	.loc 1 118 31
	sw	a4,16(s0)
	.loc 1 120 5 is_stmt 1
	.loc 1 121 5
	.loc 1 121 36 is_stmt 0
	sw	a2,24(s0)
	.loc 1 122 5 is_stmt 1
	.loc 1 123 5
	.loc 1 124 5
	.loc 1 124 31 is_stmt 0
	sw	a5,32(s0)
	.loc 1 126 5 is_stmt 1
	addi	a1,a1,%lo(.LANCHOR3)
	li	a0,0
	call	DMA_LLI_Init
.LVL48:
	.loc 1 127 5
	.loc 1 127 39 is_stmt 0
	lui	a5,%hi(.LANCHOR0)
	lw	a1,%lo(.LANCHOR0)(a5)
	.loc 1 127 5
	li	a0,0
	addi	a1,a1,4
	call	DMA_LLI_Update
.LVL49:
.LBE9:
.LBE8:
	.loc 1 276 5 is_stmt 1
	li	a0,0
	call	DMA_Channel_Enable
.LVL50:
	.loc 1 278 5
	.loc 1 279 1 is_stmt 0
	lw	ra,12(sp)
	.cfi_restore 1
	lw	s0,8(sp)
	.cfi_restore 8
.LVL51:
	.loc 1 278 12
	li	a0,0
	.loc 1 279 1
	addi	sp,sp,16
	.cfi_def_cfa_offset 0
	jr	ra
.LVL52:
.L43:
	.loc 1 257 16
	li	a0,-1
.LVL53:
	.loc 1 279 1
	ret
	.cfi_endproc
.LFE37:
	.size	bl_audio_dac_start, .-bl_audio_dac_start
	.section	.text.bl_audio_dac_stop,"ax",@progbits
	.align	1
	.globl	bl_audio_dac_stop
	.type	bl_audio_dac_stop, @function
bl_audio_dac_stop:
.LFB38:
	.loc 1 282 1 is_stmt 1
	.cfi_startproc
.LVL54:
	.loc 1 283 5
	.loc 1 283 32 is_stmt 0
	lui	a5,%hi(.LANCHOR0)
	lw	a5,%lo(.LANCHOR0)(a5)
	.loc 1 282 1
	addi	sp,sp,-16
	.cfi_def_cfa_offset 16
	sw	ra,12(sp)
	.cfi_offset 1, -4
	.loc 1 283 32
	sb	zero,0(a5)
	.loc 1 285 5 is_stmt 1
	call	DMA_Disable
.LVL55:
	.loc 1 286 5
	li	a0,0
	call	DMA_Channel_Disable
.LVL56:
	.loc 1 287 5
	li	a0,31
	call	bl_irq_disable
.LVL57:
	.loc 1 289 5
	.loc 1 290 1 is_stmt 0
	lw	ra,12(sp)
	.cfi_restore 1
	li	a0,0
	addi	sp,sp,16
	.cfi_def_cfa_offset 0
	jr	ra
	.cfi_endproc
.LFE38:
	.size	bl_audio_dac_stop, .-bl_audio_dac_stop
	.section	.text.bl_audio_dac_init,"ax",@progbits
	.align	1
	.globl	bl_audio_dac_init
	.type	bl_audio_dac_init, @function
bl_audio_dac_init:
.LFB39:
	.loc 1 293 1 is_stmt 1
	.cfi_startproc
.LVL58:
	.loc 1 294 5
	.loc 1 294 8 is_stmt 0
	beq	a0,zero,.L52
	.loc 1 293 1
	addi	sp,sp,-16
	.cfi_def_cfa_offset 16
	.loc 1 297 5
	li	a2,56
	li	a1,0
	.loc 1 293 1
	sw	ra,12(sp)
	sw	s0,8(sp)
	.cfi_offset 1, -4
	.cfi_offset 8, -8
	mv	s0,a0
	.loc 1 297 5 is_stmt 1
	call	memset
.LVL59:
	.loc 1 298 5
.LBB14:
.LBB15:
	.loc 1 109 5 is_stmt 0
	lui	a0,%hi(.LANCHOR4)
.LBE15:
.LBE14:
	.loc 1 298 22
	lui	a5,%hi(.LANCHOR0)
.LBB18:
.LBB16:
	.loc 1 109 5
	addi	a0,a0,%lo(.LANCHOR4)
.LBE16:
.LBE18:
	.loc 1 298 22
	sw	s0,%lo(.LANCHOR0)(a5)
	.loc 1 300 5 is_stmt 1
.LBB19:
.LBB17:
	.loc 1 109 5
	call	GLB_GPIO_Init
.LVL60:
.LBE17:
.LBE19:
	.loc 1 301 5
.LBB20:
.LBB21:
	.loc 1 104 5
	li	a2,64
	li	a1,0
	li	a0,1
	call	GLB_Set_DAC_CLK
.LVL61:
.LBE21:
.LBE20:
	.loc 1 303 5
	lui	a0,%hi(.LANCHOR5)
	addi	a0,a0,%lo(.LANCHOR5)
	call	GLB_GPIP_DAC_Set_ChanA_Config
.LVL62:
	.loc 1 304 5
	lui	a0,%hi(.LANCHOR6)
	addi	a0,a0,%lo(.LANCHOR6)
	call	GLB_GPIP_DAC_Set_ChanB_Config
.LVL63:
	.loc 1 306 5
	.loc 1 307 1 is_stmt 0
	lw	ra,12(sp)
	.cfi_restore 1
	lw	s0,8(sp)
	.cfi_restore 8
.LVL64:
	.loc 1 306 12
	li	a0,0
	.loc 1 307 1
	addi	sp,sp,16
	.cfi_def_cfa_offset 0
	jr	ra
.LVL65:
.L52:
	.loc 1 295 16
	li	a0,-1
.LVL66:
	.loc 1 307 1
	ret
	.cfi_endproc
.LFE39:
	.size	bl_audio_dac_init, .-bl_audio_dac_init
	.section	.text.bl_audio_dac_deinit,"ax",@progbits
	.align	1
	.globl	bl_audio_dac_deinit
	.type	bl_audio_dac_deinit, @function
bl_audio_dac_deinit:
.LFB40:
	.loc 1 310 1 is_stmt 1
	.cfi_startproc
.LVL67:
	.loc 1 311 5
	.loc 1 310 1 is_stmt 0
	addi	sp,sp,-16
	.cfi_def_cfa_offset 16
	sw	s0,8(sp)
	sw	ra,12(sp)
	.cfi_offset 8, -8
	.cfi_offset 1, -4
	.loc 1 310 1
	mv	s0,a0
	.loc 1 311 5
	lw	a0,36(a0)
.LVL68:
	call	vPortFree
.LVL69:
	.loc 1 312 5 is_stmt 1
	.loc 1 315 1 is_stmt 0
	lw	ra,12(sp)
	.cfi_restore 1
	.loc 1 312 26
	sw	zero,36(s0)
	.loc 1 314 5 is_stmt 1
	.loc 1 315 1 is_stmt 0
	lw	s0,8(sp)
	.cfi_restore 8
.LVL70:
	li	a0,0
	addi	sp,sp,16
	.cfi_def_cfa_offset 0
	jr	ra
	.cfi_endproc
.LFE40:
	.size	bl_audio_dac_deinit, .-bl_audio_dac_deinit
	.section	.data.gpioCfg,"aw"
	.align	2
	.set	.LANCHOR4,. + 0
	.type	gpioCfg, @object
	.size	gpioCfg, 12
gpioCfg:
	.byte	13
	.byte	10
	.byte	2
	.byte	2
	.byte	1
	.byte	1
	.byte	14
	.byte	10
	.byte	2
	.byte	2
	.byte	1
	.byte	1
	.section	.sbss.gp_audio_dac_dev,"aw",@nobits
	.align	2
	.set	.LANCHOR0,. + 0
	.type	gp_audio_dac_dev, @object
	.size	gp_audio_dac_dev, 4
gp_audio_dac_dev:
	.zero	4
	.section	.sdata.chACfg,"aw"
	.align	2
	.set	.LANCHOR5,. + 0
	.type	chACfg, @object
	.size	chACfg, 4
chACfg:
	.byte	1
	.byte	1
	.byte	1
	.byte	1
	.section	.sdata.chBCfg,"aw"
	.align	2
	.set	.LANCHOR6,. + 0
	.type	chBCfg, @object
	.size	chBCfg, 4
chBCfg:
	.byte	1
	.byte	1
	.byte	1
	.byte	4
	.section	.sdata.dacCfg,"aw"
	.align	2
	.set	.LANCHOR1,. + 0
	.type	dacCfg, @object
	.size	dacCfg, 6
dacCfg:
	.byte	0
	.byte	1
	.byte	1
	.byte	1
	.byte	1
	.byte	1
	.section	.sdata.dmaCtrlRegVal,"aw"
	.align	2
	.set	.LANCHOR2,. + 0
	.type	dmaCtrlRegVal, @object
	.size	dmaCtrlRegVal, 4
dmaCtrlRegVal:
	.byte	232
	.byte	3
	.byte	72
	.byte	132
	.section	.sdata.lliCfg,"aw"
	.align	2
	.set	.LANCHOR3,. + 0
	.type	lliCfg, @object
	.size	lliCfg, 3
lliCfg:
	.byte	1
	.byte	0
	.byte	23
	.text
.Letext0:
	.file 2 "d:\\bl602\\newbl602_sdk\\bl_iot_sdk\\toolchain\\riscv\\msys\\lib\\gcc\\riscv64-unknown-elf\\8.3.0\\include\\stdint-gcc.h"
	.file 3 "D:/BL602/NewBl602_sdk/bl_iot_sdk/components/bl602/freertos_riscv_ram/portable/GCC/RISC-V/portmacro.h"
	.file 4 "D:/BL602/NewBl602_sdk/bl_iot_sdk/components/bl602/bl602_std/bl602_std/RISCV/Device/Bouffalo/BL602/Startup/system_bl602.h"
	.file 5 "D:/BL602/NewBl602_sdk/bl_iot_sdk/components/bl602/bl602_std/bl602_std/Device/Bouffalo/BL602/Peripherals/dma_reg.h"
	.file 6 "d:\\bl602\\newbl602_sdk\\bl_iot_sdk\\toolchain\\riscv\\msys\\lib\\gcc\\riscv64-unknown-elf\\8.3.0\\include\\stddef.h"
	.file 7 "d:\\bl602\\newbl602_sdk\\bl_iot_sdk\\toolchain\\riscv\\msys\\riscv64-unknown-elf\\include\\sys\\_types.h"
	.file 8 "d:\\bl602\\newbl602_sdk\\bl_iot_sdk\\toolchain\\riscv\\msys\\riscv64-unknown-elf\\include\\sys\\reent.h"
	.file 9 "d:\\bl602\\newbl602_sdk\\bl_iot_sdk\\toolchain\\riscv\\msys\\riscv64-unknown-elf\\include\\sys\\lock.h"
	.file 10 "D:/BL602/NewBl602_sdk/bl_iot_sdk/components/bl602/bl602_std/bl602_std/Device/Bouffalo/BL602/Peripherals/bl602.h"
	.file 11 "D:/BL602/NewBl602_sdk/bl_iot_sdk/components/bl602/bl602_std/bl602_std/StdDriver/Inc/bl602_common.h"
	.file 12 "D:/BL602/NewBl602_sdk/bl_iot_sdk/components/bl602/bl602_std/bl602_std/StdDriver/Inc/bl602_dma.h"
	.file 13 "D:/BL602/NewBl602_sdk/bl_iot_sdk/components/bl602/bl602_std/bl602_std/StdDriver/Inc/bl602_dac.h"
	.file 14 "D:/BL602/NewBl602_sdk/bl_iot_sdk/components/hal_drv/bl602_hal/bl_dac_audio.h"
	.file 15 "D:/BL602/NewBl602_sdk/bl_iot_sdk/components/bl602/bl602_std/bl602_std/StdDriver/Inc/bl602_gpio.h"
	.file 16 "D:/BL602/NewBl602_sdk/bl_iot_sdk/components/bl602/bl602_std/bl602_std/StdDriver/Inc/bl602_glb.h"
	.file 17 "D:/BL602/NewBl602_sdk/bl_iot_sdk/components/bl602/bl602_std/bl602_std/Common/platform_print/bflb_platform.h"
	.file 18 "d:\\bl602\\newbl602_sdk\\bl_iot_sdk\\toolchain\\riscv\\msys\\riscv64-unknown-elf\\include\\string.h"
	.file 19 "D:/BL602/NewBl602_sdk/bl_iot_sdk/components/hal_drv/bl602_hal/bl_irq.h"