	.file	"dht.c"
	.option nopic
	.attribute arch, "rv32i2p0_m2p0_f2p0_c2p0"
	.attribute unaligned_access, 0
	.attribute stack_align, 16
	.text
.Ltext0:
	.cfi_sections	.debug_frame
	.section	.text.initiateGPIO,"ax",@progbits
	.align	1
	.globl	initiateGPIO
	.type	initiateGPIO, @function
initiateGPIO:
.LFB4:
	.file 1 "D:/BL602/final_code/build_2/main2_file/dht.c"
	.loc 1 19 1
	.cfi_startproc
	.loc 1 20 3
	li	a2,0
	li	a1,0
	li	a0,17
	tail	bl_gpio_enable_output
.LVL0:
	.cfi_endproc
.LFE4:
	.size	initiateGPIO, .-initiateGPIO
	.section	.text.sendStartSignal,"ax",@progbits
	.align	1
	.globl	sendStartSignal
	.type	sendStartSignal, @function
sendStartSignal:
.LFB5:
	.loc 1 23 1
	.cfi_startproc
	.loc 1 24 3
	.loc 1 23 1 is_stmt 0
	addi	sp,sp,-16
	.cfi_def_cfa_offset 16
	.loc 1 24 3
	li	a1,0
	li	a0,17
	.loc 1 23 1
	sw	ra,12(sp)
	.cfi_offset 1, -4
	.loc 1 24 3
	call	bl_gpio_output_set
.LVL1:
	.loc 1 25 3 is_stmt 1
	li	a0,1
	call	vTaskDelay
.LVL2:
	.loc 1 27 3
	li	a1,1
	li	a0,17
	call	bl_gpio_output_set
.LVL3:
	.loc 1 28 3
	.loc 1 29 1 is_stmt 0
	lw	ra,12(sp)
	.cfi_restore 1
	.loc 1 28 3
	li	a0,30
	.loc 1 29 1
	addi	sp,sp,16
	.cfi_def_cfa_offset 0
	.loc 1 28 3
	tail	bl_timer_delay_us
.LVL4:
	.cfi_endproc
.LFE5:
	.size	sendStartSignal, .-sendStartSignal
	.section	.text.task_dht,"ax",@progbits
	.align	1
	.globl	task_dht
	.type	task_dht, @function
task_dht:
.LFB6:
	.loc 1 32 1 is_stmt 1
	.cfi_startproc
.LVL5:
	addi	sp,sp,-64
	.cfi_def_cfa_offset 64
	sw	s1,52(sp)
	sw	s2,48(sp)
	sw	s3,44(sp)
	sw	s4,40(sp)
	sw	s5,36(sp)
	sw	s6,32(sp)
	sw	s7,28(sp)
	sw	ra,60(sp)
	sw	s0,56(sp)
	sw	s8,24(sp)
	.cfi_offset 9, -12
	.cfi_offset 18, -16
	.cfi_offset 19, -20
	.cfi_offset 20, -24
	.cfi_offset 21, -28
	.cfi_offset 22, -32
	.cfi_offset 23, -36
	.cfi_offset 1, -4
	.cfi_offset 8, -8
	.cfi_offset 24, -40
.LBB2:
	.loc 1 42 11 is_stmt 0
	li	s1,1
	.loc 1 64 14
	lui	s2,%hi(humidity)
	.loc 1 65 10
	lui	s3,%hi(temp)
	lui	s4,%hi(.LC2)
	lui	s5,%hi(.LC3)
	.loc 1 88 7
	lui	s6,%hi(.LC1)
	.loc 1 76 9
	lui	s7,%hi(.LC0)
.LVL6:
.L16:
.LBE2:
	.loc 1 34 3 is_stmt 1
.LBB4:
	.loc 1 36 5
	call	initiateGPIO
.LVL7:
	.loc 1 37 5
	.loc 1 37 13 is_stmt 0
	sw	zero,8(sp)
	sb	zero,12(sp)
	.loc 1 38 5 is_stmt 1
	call	sendStartSignal
.LVL8:
	.loc 1 40 5
	li	a2,0
	li	a1,0
	li	a0,17
	call	bl_gpio_enable_input
.LVL9:
	.loc 1 42 5
.L5:
	.loc 1 43 7 discriminator 1
	.loc 1 42 12 is_stmt 0 discriminator 1
	li	a0,17
	call	bl_gpio_input_get_value
.LVL10:
	.loc 1 42 11 discriminator 1
	beq	a0,s1,.L5
.L6:
	.loc 1 45 7 is_stmt 1 discriminator 1
	.loc 1 44 12 is_stmt 0 discriminator 1
	li	a0,17
	call	bl_gpio_input_get_value
.LVL11:
	.loc 1 44 11 discriminator 1
	beq	a0,zero,.L6
.L7:
	.loc 1 47 7 is_stmt 1 discriminator 1
	.loc 1 46 12 is_stmt 0 discriminator 1
	li	a0,17
	call	bl_gpio_input_get_value
.LVL12:
	.loc 1 46 11 discriminator 1
	beq	a0,s1,.L7
.LBB3:
	.loc 1 49 14
	li	s8,0
	.loc 1 49 5
	li	s0,40
.L8:
	.loc 1 52 9 is_stmt 1 discriminator 1
	.loc 1 51 14 is_stmt 0 discriminator 1
	li	a0,17
	call	bl_gpio_input_get_value
.LVL13:
	.loc 1 51 13 discriminator 1
	beq	a0,zero,.L8
	.loc 1 54 7 is_stmt 1
	li	a0,30
	call	bl_timer_delay_us
.LVL14:
	.loc 1 56 7
	.loc 1 56 11 is_stmt 0
	li	a0,17
	call	bl_gpio_input_get_value
.LVL15:
	.loc 1 56 10
	beq	a0,zero,.L10
	.loc 1 58 9 is_stmt 1
	.loc 1 58 21 is_stmt 0
	addi	a5,sp,16
	.loc 1 58 16
	srai	a4,s8,3
	.loc 1 58 21
	add	a4,a5,a4
	lbu	a3,-8(a4)
	.loc 1 58 27
	not	a5,s8
	andi	a5,a5,7
	sll	a5,s1,a5
	.loc 1 58 21
	or	a5,a5,a3
	sb	a5,-8(a4)
.L10:
	.loc 1 62 9 is_stmt 1 discriminator 1
	.loc 1 61 14 is_stmt 0 discriminator 1
	li	a0,17
	call	bl_gpio_input_get_value
.LVL16:
	.loc 1 61 13 discriminator 1
	beq	a0,s1,.L10
	.loc 1 49 30 discriminator 2
	addi	s8,s8,1
.LVL17:
	.loc 1 49 5 discriminator 2
	bne	s8,s0,.L8
.LBE3:
	.loc 1 64 5 is_stmt 1
	.loc 1 64 21 is_stmt 0
	lbu	a2,8(sp)
	.loc 1 64 36
	lbu	a5,9(sp)
	.loc 1 65 17
	lbu	a3,10(sp)
	.loc 1 64 25
	slli	a4,a2,8
	.loc 1 64 30
	or	a4,a4,a5
	.loc 1 64 14
	sh	a4,%lo(humidity)(s2)
	.loc 1 65 5 is_stmt 1
	.loc 1 65 32 is_stmt 0
	lbu	a4,11(sp)
	.loc 1 65 21
	slli	a1,a3,8
	.loc 1 70 18
	add	a5,a5,a2
	.loc 1 65 26
	or	a1,a1,a4
	.loc 1 70 28
	add	a5,a5,a3
	.loc 1 65 26
	slli	a1,a1,16
	.loc 1 70 38
	add	a5,a5,a4
	.loc 1 70 49
	lbu	a4,12(sp)
	.loc 1 65 26
	srai	a1,a1,16
	.loc 1 65 10
	sh	a1,%lo(temp)(s3)
	.loc 1 66 5 is_stmt 1
.LVL18:
	.loc 1 70 5
	.loc 1 70 8 is_stmt 0
	bne	a5,a4,.L12
	.loc 1 73 7 is_stmt 1
	.loc 1 73 10 is_stmt 0
	bge	a1,zero,.L13
	.loc 1 75 9 is_stmt 1
	.loc 1 75 14 is_stmt 0
	neg	a1,a1
	slli	s0,a1,16
	srai	s0,s0,16
	.loc 1 76 9
	li	s8,10
.LVL19:
	rem	a0,s0,s8
	.loc 1 75 14
	sh	s0,%lo(temp)(s3)
	.loc 1 76 9 is_stmt 1
	call	abs
.LVL20:
	div	a1,s0,s8
	mv	a2,a0
	addi	a0,s7,%lo(.LC0)
.L29:
	.loc 1 80 9 is_stmt 0
	call	printf
.LVL21:
	.loc 1 83 7 is_stmt 1
	lhu	a1,%lo(humidity)(s2)
	li	a5,10
	remu	a2,a1,a5
	divu	a1,a1,a5
.L30:
	.loc 1 89 7 is_stmt 0
	addi	a0,s4,%lo(.LC2)
	call	printf
.LVL22:
	.loc 1 90 7 is_stmt 1
	addi	a0,s5,%lo(.LC3)
	call	printf
.LVL23:
	.loc 1 93 5
	li	a0,8192
	addi	a0,a0,1808
	call	vTaskDelay
.LVL24:
.LBE4:
	.loc 1 35 3 is_stmt 0
	j	.L16
.LVL25:
.L13:
.LBB5:
	.loc 1 80 9 is_stmt 1
	li	a5,10
	rem	a2,a1,a5
	addi	a0,s6,%lo(.LC1)
	div	a1,a1,a5
	j	.L29
.L12:
	.loc 1 88 7
	li	s0,10
	rem	a2,a1,s0
	addi	a0,s6,%lo(.LC1)
	div	a1,a1,s0
	call	printf
.LVL26:
	.loc 1 89 7
	lhu	a1,%lo(humidity)(s2)
	remu	a2,a1,s0
	divu	a1,a1,s0
	j	.L30
.LBE5:
	.cfi_endproc
.LFE6:
	.size	task_dht, .-task_dht
	.comm	temp,2,2
	.comm	humidity,2,2
	.section	.rodata.task_dht.str1.4,"aMS",@progbits,1
	.align	2
.LC0:
	.string	"\033[31mTemperature: %d.%d *C\r\n"
	.zero	3
.LC1:
	.string	"\033[36mTemperature: %d.%d *C\r\n"
	.zero	3
.LC2:
	.string	"\033[33mHumidity: %d.%d \r\n"
.LC3:
	.string	"\033[0m"
	.text
.Letext0:
	.file 2 "d:\\bl602\\newbl602_sdk\\bl_iot_sdk\\toolchain\\riscv\\msys\\lib\\gcc\\riscv64-unknown-elf\\8.3.0\\include\\stdint-gcc.h"
	.file 3 "D:/BL602/NewBl602_sdk/bl_iot_sdk/components/bl602/freertos_riscv_ram/portable/GCC/RISC-V/portmacro.h"
	.file 4 "d:\\bl602\\newbl602_sdk\\bl_iot_sdk\\toolchain\\riscv\\msys\\lib\\gcc\\riscv64-unknown-elf\\8.3.0\\include\\stddef.h"
	.file 5 "d:\\bl602\\newbl602_sdk\\bl_iot_sdk\\toolchain\\riscv\\msys\\riscv64-unknown-elf\\include\\sys\\_types.h"
	.file 6 "d:\\bl602\\newbl602_sdk\\bl_iot_sdk\\toolchain\\riscv\\msys\\riscv64-unknown-elf\\include\\sys\\reent.h"
	.file 7 "d:\\bl602\\newbl602_sdk\\bl_iot_sdk\\toolchain\\riscv\\msys\\riscv64-unknown-elf\\include\\sys\\lock.h"
	.file 8 "d:\\bl602\\newbl602_sdk\\bl_iot_sdk\\toolchain\\riscv\\msys\\riscv64-unknown-elf\\include\\stdlib.h"
	.file 9 "D:/BL602/NewBl602_sdk/bl_iot_sdk/components/hal_drv/bl602_hal/bl_gpio.h"
	.file 10 "D:/BL602/NewBl602_sdk/bl_iot_sdk/components/hal_drv/bl602_hal/bl_timer.h"
	.file 11 "d:\\bl602\\newbl602_sdk\\bl_iot_sdk\\toolchain\\riscv\\msys\\riscv64-unknown-elf\\include\\stdio.h"
	.file 12 "D:/BL602/NewBl602_sdk/bl_iot_sdk/components/bl602/freertos_riscv_ram/config/task.h"